; Function Attrs: mustprogress nounwind uwtable
define dso_local void @_ZN4node6worker11MessagePort5StartERKN2v820FunctionCallbackInfoINS2_5ValueEEE(ptr nocapture noundef nonnull readonly align 8 dereferenceable(20) %args) #6 align 2 {
entry:
  %values_.i = getelementptr inbounds i8, ptr %args, i64 8
  %0 = load ptr, ptr %values_.i, align 8
  %add.ptr.i = getelementptr inbounds i8, ptr %0, i64 -8
  %1 = load i64, ptr %add.ptr.i, align 8
  %sub.i32.i = add i64 %1, -1
  %2 = inttoptr i64 %sub.i32.i to ptr
  %3 = load i64, ptr %2, align 8
  %sub.i26.i = add i64 %3, 11
  %4 = inttoptr i64 %sub.i26.i to ptr
  %5 = load i16, ptr %4, align 2
  %conv.i.i = zext i16 %5 to i32
  %cmp.i.i = icmp eq i16 %5, 1040
  %sub.i.i = add nsw i32 %conv.i.i, -1057
  %cmp1.i.i = icmp ult i32 %sub.i.i, 1002
  %6 = select i1 %cmp.i.i, i1 true, i1 %cmp1.i.i
  br i1 %6, label %if.then.i.i, label %if.end.i.i

if.then.i.i:                                      ; preds = %entry
  %sub.i38.i = add i64 %1, 31
  %7 = inttoptr i64 %sub.i38.i to ptr
  %8 = load i64, ptr %7, align 8
  %9 = inttoptr i64 %8 to ptr
  br label %_ZN4node10BaseObject12FromJSObjectEN2v85LocalINS1_5ValueEEE.exit

if.end.i.i:                                       ; preds = %entry
  %call7.i.i = tail call noundef ptr @_ZN2v86Object38SlowGetAlignedPointerFromInternalFieldEi(ptr noundef nonnull align 1 dereferenceable(1) %add.ptr.i, i32 noundef 1) #26
  br label %_ZN4node10BaseObject12FromJSObjectEN2v85LocalINS1_5ValueEEE.exit

_ZN4node10BaseObject12FromJSObjectEN2v85LocalINS1_5ValueEEE.exit: ; preds = %if.then.i.i, %if.end.i.i
  %retval.i13.0.i = phi ptr [ %9, %if.then.i.i ], [ %call7.i.i, %if.end.i.i ]
  %cmp = icmp eq ptr %retval.i13.0.i, null
  br i1 %cmp, label %return, label %do.end

do.end:                                           ; preds = %_ZN4node10BaseObject12FromJSObjectEN2v85LocalINS1_5ValueEEE.exit
  %data_ = getelementptr inbounds i8, ptr %retval.i13.0.i, i64 88
  %10 = load ptr, ptr %data_, align 8
  %cmp.i.not = icmp eq ptr %10, null
  br i1 %cmp.i.not, label %return, label %if.end13

if.end13:                                         ; preds = %do.end
  tail call void @_ZN4node6worker11MessagePort5StartEv(ptr noundef nonnull align 8 dereferenceable(240) %retval.i13.0.i)
  br label %return

return:                                           ; preds = %do.end, %_ZN4node10BaseObject12FromJSObjectEN2v85LocalINS1_5ValueEEE.exit, %if.end13
  ret void
}